target datalayout = "e-m:e-p270:32:32-p271:32:32-p272:64:64-i64:64-i128:128-f80:128-n8:16:32:64-S128"
target triple = "x86_64-unknown-linux-gnu"

%"class.std::__cxx11::basic_string" = type { %"struct.std::__cxx11::basic_string<char>::_Alloc_hider", i64, %union.anon }
%"struct.std::__cxx11::basic_string<char>::_Alloc_hider" = type { ptr }
%union.anon = type { i64, [8 x i8] }
%"class.std::__shared_count" = type { ptr }
%"class.cvc5::internal::ManagedStream.12" = type { ptr, ptr, %"class.std::shared_ptr.13", %"class.std::__cxx11::basic_string" }
%"class.std::shared_ptr.13" = type { %"class.std::__shared_ptr.14" }
%"class.std::__shared_ptr.14" = type { ptr, %"class.std::__shared_count" }
%"class.cvc5::internal::ManagedOut" = type { %"class.cvc5::internal::ManagedStream.12" }

; Function Attrs: mustprogress uwtable
define hidden void @_ZN4cvc58internal7options8handlers12handleOptionINS0_10ManagedOutEEET_RKNSt7__cxx1112basic_stringIcSt11char_traitsIcESaIcEEESD_(ptr noalias sret(%"class.cvc5::internal::ManagedOut") align 8 %agg.result, ptr noundef nonnull align 8 dereferenceable(32) %flag, ptr noundef nonnull align 8 dereferenceable(32) %optionarg) #4 personality ptr @__gxx_personality_v0 {
entry:
  %result.ptr = alloca ptr, align 8
  %flag.addr = alloca ptr, align 8
  %optionarg.addr = alloca ptr, align 8
  %nrvo = alloca i1, align 1
  %exn.slot = alloca ptr, align 8
  %ehselector.slot = alloca i32, align 4
  store ptr %agg.result, ptr %result.ptr, align 8
  store ptr %flag, ptr %flag.addr, align 8
  store ptr %optionarg, ptr %optionarg.addr, align 8
  store i1 false, ptr %nrvo, align 1
  call void @_ZN4cvc58internal10ManagedOutC1Ev(ptr noundef nonnull align 8 dereferenceable(64) %agg.result)
  %0 = load ptr, ptr %optionarg.addr, align 8
  invoke void @_ZN4cvc58internal13ManagedStreamISoE4openERKNSt7__cxx1112basic_stringIcSt11char_traitsIcESaIcEEE(ptr noundef nonnull align 8 dereferenceable(64) %agg.result, ptr noundef nonnull align 8 dereferenceable(32) %0)
          to label %invoke.cont unwind label %lpad

invoke.cont:                                      ; preds = %entry
  store i1 true, ptr %nrvo, align 1
  %nrvo.val = load i1, ptr %nrvo, align 1
  br i1 %nrvo.val, label %nrvo.skipdtor, label %nrvo.unused

lpad:                                             ; preds = %entry
  %1 = landingpad { ptr, i32 }
          cleanup
  %2 = extractvalue { ptr, i32 } %1, 0
  store ptr %2, ptr %exn.slot, align 8
  %3 = extractvalue { ptr, i32 } %1, 1
  store i32 %3, ptr %ehselector.slot, align 4
  call void @_ZN4cvc58internal10ManagedOutD2Ev(ptr noundef nonnull align 8 dereferenceable(64) %agg.result) #3
  br label %eh.resume

nrvo.unused:                                      ; preds = %invoke.cont
  call void @_ZN4cvc58internal10ManagedOutD2Ev(ptr noundef nonnull align 8 dereferenceable(64) %agg.result) #3
  br label %nrvo.skipdtor

nrvo.skipdtor:                                    ; preds = %nrvo.unused, %invoke.cont
  ret void

eh.resume:                                        ; preds = %lpad
  %exn = load ptr, ptr %exn.slot, align 8
  %sel = load i32, ptr %ehselector.slot, align 4
  %lpad.val = insertvalue { ptr, i32 } poison, ptr %exn, 0
  %lpad.val1 = insertvalue { ptr, i32 } %lpad.val, i32 %sel, 1
  resume { ptr, i32 } %lpad.val1
}